target datalayout = "e-m:e-p270:32:32-p271:32:32-p272:64:64-i64:64-i128:128-f80:128-n8:16:32:64-S128"
target triple = "x86_64-unknown-linux-gnu"

%struct.Notifier = type { ptr, %struct.anon }
%struct.anon = type { ptr, ptr }
%struct.QemuEvent = type { i32, i8 }
%struct.rcu_reader_data = type { i64, i8, i32, %struct.anon.0, %struct.NotifierList }
%struct.anon.0 = type { ptr, ptr }
%struct.NotifierList = type { %struct.anon.1 }
%struct.anon.1 = type { ptr }

@log_per_thread = internal global i8 0, align 1
@.str = private unnamed_addr constant [19 x i8] c"../qemu/util/log.c\00", align 1
@global_file = internal global ptr null, align 8
@thread_file = internal thread_local global ptr null, align 8
@global_filename = internal global ptr null, align 8
@.str.55 = private unnamed_addr constant [2 x i8] c"w\00", align 1
@__func__.qemu_log_trylock_with_err = private unnamed_addr constant [26 x i8] c"qemu_log_trylock_with_err\00", align 1
@.str.56 = private unnamed_addr constant [39 x i8] c"Error opening logfile %s for thread %d\00", align 1
@qemu_log_thread_cleanup_notifier = internal thread_local global %struct.Notifier zeroinitializer, align 8
@.str.57 = private unnamed_addr constant [97 x i8] c"/home/dtcxzyw/WorkSpace/Projects/compilers/llvm-opt-benchmark/bench/qemu/qemu/include/qemu/rcu.h\00", align 1
@__func__.rcu_read_lock = private unnamed_addr constant [14 x i8] c"rcu_read_lock\00", align 1
@rcu_gp_ctr = external global i64, align 8
@.str.58 = private unnamed_addr constant [25 x i8] c"p_rcu_reader->depth != 0\00", align 1
@__PRETTY_FUNCTION__.rcu_read_unlock = private unnamed_addr constant [27 x i8] c"void rcu_read_unlock(void)\00", align 1
@__func__.rcu_read_unlock = private unnamed_addr constant [16 x i8] c"rcu_read_unlock\00", align 1
@rcu_gp_event = external global %struct.QemuEvent, align 4

; Function Attrs: nounwind sspstrong uwtable
define internal void @qemu_flockfile(ptr noundef %f) #0 {
entry:
  %f.addr = alloca ptr, align 8
  store ptr %f, ptr %f.addr, align 8
  %0 = load ptr, ptr %f.addr, align 8
  call void @flockfile(ptr noundef %0) #12
  ret void
}

; Function Attrs: nounwind sspstrong uwtable
define internal void @rcu_read_unlock() #0 {
entry:
  %p_rcu_reader = alloca ptr, align 8
  %.atomictmp = alloca i64, align 8
  %tmp = alloca i8, align 1
  %atomic-temp = alloca i8, align 1
  %.atomictmp23 = alloca i8, align 1
  %call = call ptr @get_ptr_rcu_reader()
  store ptr %call, ptr %p_rcu_reader, align 8
  %0 = load ptr, ptr %p_rcu_reader, align 8
  %depth = getelementptr inbounds %struct.rcu_reader_data, ptr %0, i32 0, i32 2
  %1 = load i32, ptr %depth, align 4
  %cmp = icmp ne i32 %1, 0
  br i1 %cmp, label %if.then, label %if.else

if.then:                                          ; preds = %entry
  br label %if.end

if.else:                                          ; preds = %entry
  call void @__assert_fail(ptr noundef @.str.58, ptr noundef @.str.57, i32 noundef 101, ptr noundef @__PRETTY_FUNCTION__.rcu_read_unlock) #13
  unreachable

if.end:                                           ; preds = %if.then
  %2 = load ptr, ptr %p_rcu_reader, align 8
  %depth1 = getelementptr inbounds %struct.rcu_reader_data, ptr %2, i32 0, i32 2
  %3 = load i32, ptr %depth1, align 4
  %dec = add i32 %3, -1
  store i32 %dec, ptr %depth1, align 4
  %cmp2 = icmp ugt i32 %dec, 0
  br i1 %cmp2, label %if.then3, label %if.end4

if.then3:                                         ; preds = %if.end
  br label %if.end25

if.end4:                                          ; preds = %if.end
  br label %do.body

do.body:                                          ; preds = %if.end4
  br label %while.cond

while.cond:                                       ; preds = %do.end, %do.body
  br i1 false, label %while.body, label %while.end

while.body:                                       ; preds = %while.cond
  br label %do.body5

do.body5:                                         ; preds = %while.body
  call void @g_assertion_message_expr(ptr noundef null, ptr noundef @.str.57, i32 noundef 111, ptr noundef @__func__.rcu_read_unlock, ptr noundef null) #10
  unreachable

do.end:                                           ; No predecessors!
  br label %while.cond

while.end:                                        ; preds = %while.cond
  %4 = load ptr, ptr %p_rcu_reader, align 8
  %ctr = getelementptr inbounds %struct.rcu_reader_data, ptr %4, i32 0, i32 0
  store i64 0, ptr %.atomictmp, align 8
  %5 = load i64, ptr %.atomictmp, align 8
  store atomic i64 %5, ptr %ctr release, align 8
  br label %do.end6

do.end6:                                          ; preds = %while.end
  call void asm sideeffect "", "~{memory},~{dirflag},~{fpsr},~{flags}"() #12, !srcloc !6
  fence seq_cst
  br label %while.cond7

while.cond7:                                      ; preds = %do.end10, %do.end6
  br i1 false, label %while.body8, label %while.end11

while.body8:                                      ; preds = %while.cond7
  br label %do.body9

do.body9:                                         ; preds = %while.body8
  call void @g_assertion_message_expr(ptr noundef null, ptr noundef @.str.57, i32 noundef 115, ptr noundef @__func__.rcu_read_unlock, ptr noundef null) #10
  unreachable

do.end10:                                         ; No predecessors!
  br label %while.cond7

while.end11:                                      ; preds = %while.cond7
  %6 = load ptr, ptr %p_rcu_reader, align 8
  %waiting = getelementptr inbounds %struct.rcu_reader_data, ptr %6, i32 0, i32 1
  %7 = load atomic i8, ptr %waiting monotonic, align 8
  store i8 %7, ptr %atomic-temp, align 1
  %8 = load i8, ptr %atomic-temp, align 1
  %tobool = trunc i8 %8 to i1
  %frombool = zext i1 %tobool to i8
  store i8 %frombool, ptr %tmp, align 1
  %9 = load i8, ptr %tmp, align 1
  %tobool12 = trunc i8 %9 to i1
  %lnot = xor i1 %tobool12, true
  %lnot13 = xor i1 %lnot, true
  %lnot.ext = zext i1 %lnot13 to i32
  %conv = sext i32 %lnot.ext to i64
  %tobool14 = icmp ne i64 %conv, 0
  br i1 %tobool14, label %if.then15, label %if.end25

if.then15:                                        ; preds = %while.end11
  br label %do.body16

do.body16:                                        ; preds = %if.then15
  br label %while.cond17

while.cond17:                                     ; preds = %do.end20, %do.body16
  br i1 false, label %while.body18, label %while.end21

while.body18:                                     ; preds = %while.cond17
  br label %do.body19

do.body19:                                        ; preds = %while.body18
  call void @g_assertion_message_expr(ptr noundef null, ptr noundef @.str.57, i32 noundef 116, ptr noundef @__func__.rcu_read_unlock, ptr noundef null) #10
  unreachable

do.end20:                                         ; No predecessors!
  br label %while.cond17

while.end21:                                      ; preds = %while.cond17
  %10 = load ptr, ptr %p_rcu_reader, align 8
  %waiting22 = getelementptr inbounds %struct.rcu_reader_data, ptr %10, i32 0, i32 1
  store i8 0, ptr %.atomictmp23, align 1
  %11 = load i8, ptr %.atomictmp23, align 1
  store atomic i8 %11, ptr %waiting22 monotonic, align 8
  br label %do.end24

do.end24:                                         ; preds = %while.end21
  call void @qemu_event_set(ptr noundef @rcu_gp_event)
  br label %if.end25

if.end25:                                         ; preds = %do.end24, %while.end11, %if.then3
  ret void
}

; Function Attrs: nounwind sspstrong uwtable
define internal void @rcu_read_lock() #0 {
entry:
  %p_rcu_reader = alloca ptr, align 8
  %ctr = alloca i32, align 4
  %tmp = alloca i64, align 8
  %atomic-temp = alloca i64, align 8
  %.atomictmp = alloca i64, align 8
  %call = call ptr @get_ptr_rcu_reader()
  store ptr %call, ptr %p_rcu_reader, align 8
  %0 = load ptr, ptr %p_rcu_reader, align 8
  %depth = getelementptr inbounds %struct.rcu_reader_data, ptr %0, i32 0, i32 2
  %1 = load i32, ptr %depth, align 4
  %inc = add i32 %1, 1
  store i32 %inc, ptr %depth, align 4
  %cmp = icmp ugt i32 %1, 0
  br i1 %cmp, label %if.then, label %if.end

if.then:                                          ; preds = %entry
  br label %return

if.end:                                           ; preds = %entry
  br label %while.cond

while.cond:                                       ; preds = %do.end, %if.end
  br i1 false, label %while.body, label %while.end

while.body:                                       ; preds = %while.cond
  br label %do.body

do.body:                                          ; preds = %while.body
  call void @g_assertion_message_expr(ptr noundef null, ptr noundef @.str.57, i32 noundef 87, ptr noundef @__func__.rcu_read_lock, ptr noundef null) #10
  unreachable

do.end:                                           ; No predecessors!
  br label %while.cond

while.end:                                        ; preds = %while.cond
  %2 = load atomic i64, ptr @rcu_gp_ctr monotonic, align 8
  store i64 %2, ptr %atomic-temp, align 8
  %3 = load i64, ptr %atomic-temp, align 8
  store i64 %3, ptr %tmp, align 8
  %4 = load i64, ptr %tmp, align 8
  %conv = trunc i64 %4 to i32
  store i32 %conv, ptr %ctr, align 4
  br label %do.body1

do.body1:                                         ; preds = %while.end
  br label %while.cond2

while.cond2:                                      ; preds = %do.end5, %do.body1
  br i1 false, label %while.body3, label %while.end6

while.body3:                                      ; preds = %while.cond2
  br label %do.body4

do.body4:                                         ; preds = %while.body3
  call void @g_assertion_message_expr(ptr noundef null, ptr noundef @.str.57, i32 noundef 88, ptr noundef @__func__.rcu_read_lock, ptr noundef null) #10
  unreachable

do.end5:                                          ; No predecessors!
  br label %while.cond2

while.end6:                                       ; preds = %while.cond2
  %5 = load ptr, ptr %p_rcu_reader, align 8
  %ctr7 = getelementptr inbounds %struct.rcu_reader_data, ptr %5, i32 0, i32 0
  %6 = load i32, ptr %ctr, align 4
  %conv8 = zext i32 %6 to i64
  store i64 %conv8, ptr %.atomictmp, align 8
  %7 = load i64, ptr %.atomictmp, align 8
  store atomic i64 %7, ptr %ctr7 monotonic, align 8
  br label %do.end9

do.end9:                                          ; preds = %while.end6
  call void asm sideeffect "", "~{memory},~{dirflag},~{fpsr},~{flags}"() #12, !srcloc !14
  fence seq_cst
  br label %return

return:                                           ; preds = %do.end9, %if.then
  ret void
}

; Function Attrs: nounwind sspstrong uwtable
define internal void @g_autoptr_cleanup_generic_gfree(ptr noundef %p) #0 {
entry:
  %p.addr = alloca ptr, align 8
  %pp = alloca ptr, align 8
  store ptr %p, ptr %p.addr, align 8
  %0 = load ptr, ptr %p.addr, align 8
  store ptr %0, ptr %pp, align 8
  %1 = load ptr, ptr %pp, align 8
  %2 = load ptr, ptr %1, align 8
  call void @g_free(ptr noundef %2)
  ret void
}

; Function Attrs: nounwind sspstrong uwtable
define internal i32 @log_thread_id() #0 {
entry:
  %call = call i32 @gettid() #12
  ret i32 %call
}

; Function Attrs: nounwind sspstrong uwtable
define internal ptr @qemu_log_trylock_with_err(ptr noundef %errp) #0 {
entry:
  %retval = alloca ptr, align 8
  %errp.addr = alloca ptr, align 8
  %logfile = alloca ptr, align 8
  %filename = alloca ptr, align 8
  %cleanup.dest.slot = alloca i32, align 4
  %_val0 = alloca ptr, align 8
  %tmp = alloca ptr, align 8
  store ptr %errp, ptr %errp.addr, align 8
  %0 = call align 8 ptr @llvm.threadlocal.address.p0(ptr align 8 @thread_file)
  %1 = load ptr, ptr %0, align 8
  store ptr %1, ptr %logfile, align 8
  %2 = load ptr, ptr %logfile, align 8
  %tobool = icmp ne ptr %2, null
  br i1 %tobool, label %if.end13, label %if.then

if.then:                                          ; preds = %entry
  %3 = load i8, ptr @log_per_thread, align 1
  %tobool1 = trunc i8 %3 to i1
  br i1 %tobool1, label %if.then2, label %if.else

if.then2:                                         ; preds = %if.then
  %4 = load ptr, ptr @global_filename, align 8
  %call = call i32 @log_thread_id()
  %call3 = call noalias ptr (ptr, ...) @g_strdup_printf(ptr noundef %4, i32 noundef %call)
  store ptr %call3, ptr %filename, align 8
  %5 = load ptr, ptr %filename, align 8
  %call4 = call noalias ptr @fopen64(ptr noundef %5, ptr noundef @.str.55)
  store ptr %call4, ptr %logfile, align 8
  %6 = load ptr, ptr %logfile, align 8
  %tobool5 = icmp ne ptr %6, null
  br i1 %tobool5, label %if.end, label %if.then6

if.then6:                                         ; preds = %if.then2
  %7 = load ptr, ptr %errp.addr, align 8
  %call7 = call ptr @__errno_location() #11
  %8 = load i32, ptr %call7, align 4
  %9 = load ptr, ptr %filename, align 8
  %call8 = call i32 @log_thread_id()
  call void (ptr, ptr, i32, ptr, i32, ptr, ...) @error_setg_errno_internal(ptr noundef %7, ptr noundef @.str, i32 noundef 103, ptr noundef @__func__.qemu_log_trylock_with_err, i32 noundef %8, ptr noundef @.str.56, ptr noundef %9, i32 noundef %call8)
  store ptr null, ptr %retval, align 8
  store i32 1, ptr %cleanup.dest.slot, align 4
  br label %cleanup

if.end:                                           ; preds = %if.then2
  %10 = load ptr, ptr %logfile, align 8
  %11 = call align 8 ptr @llvm.threadlocal.address.p0(ptr align 8 @thread_file)
  store ptr %10, ptr %11, align 8
  %12 = call align 8 ptr @llvm.threadlocal.address.p0(ptr align 8 @qemu_log_thread_cleanup_notifier)
  %notify = getelementptr inbounds %struct.Notifier, ptr %12, i32 0, i32 0
  store ptr @qemu_log_thread_cleanup, ptr %notify, align 8
  %13 = call align 8 ptr @llvm.threadlocal.address.p0(ptr align 8 @qemu_log_thread_cleanup_notifier)
  call void @qemu_thread_atexit_add(ptr noundef %13)
  store i32 0, ptr %cleanup.dest.slot, align 4
  br label %cleanup

cleanup:                                          ; preds = %if.end, %if.then6
  call void @g_autoptr_cleanup_generic_gfree(ptr noundef %filename)
  %cleanup.dest = load i32, ptr %cleanup.dest.slot, align 4
  switch i32 %cleanup.dest, label %unreachable [
    i32 0, label %cleanup.cont
    i32 1, label %return
  ]

cleanup.cont:                                     ; preds = %cleanup
  br label %if.end12

if.else:                                          ; preds = %if.then
  call void @rcu_read_lock()
  br label %while.cond

while.cond:                                       ; preds = %do.end, %if.else
  br i1 false, label %while.body, label %while.end

while.body:                                       ; preds = %while.cond
  br label %do.body

do.body:                                          ; preds = %while.body
  call void @g_assertion_message_expr(ptr noundef null, ptr noundef @.str, i32 noundef 118, ptr noundef @__func__.qemu_log_trylock_with_err, ptr noundef null) #10
  unreachable

do.end:                                           ; No predecessors!
  br label %while.cond

while.end:                                        ; preds = %while.cond
  %14 = load atomic i64, ptr @global_file monotonic, align 8
  store i64 %14, ptr %_val0, align 8
  call void asm sideeffect "", "~{memory},~{dirflag},~{fpsr},~{flags}"() #12, !srcloc !5
  %15 = load ptr, ptr %_val0, align 8
  store ptr %15, ptr %tmp, align 8
  %16 = load ptr, ptr %tmp, align 8
  store ptr %16, ptr %logfile, align 8
  %17 = load ptr, ptr %logfile, align 8
  %tobool9 = icmp ne ptr %17, null
  br i1 %tobool9, label %if.end11, label %if.then10

if.then10:                                        ; preds = %while.end
  call void @rcu_read_unlock()
  store ptr null, ptr %retval, align 8
  br label %return

if.end11:                                         ; preds = %while.end
  br label %if.end12

if.end12:                                         ; preds = %if.end11, %cleanup.cont
  br label %if.end13

if.end13:                                         ; preds = %if.end12, %entry
  %18 = load ptr, ptr %logfile, align 8
  call void @qemu_flockfile(ptr noundef %18)
  %19 = load ptr, ptr %logfile, align 8
  store ptr %19, ptr %retval, align 8
  br label %return

return:                                           ; preds = %if.end13, %if.then10, %cleanup
  %20 = load ptr, ptr %retval, align 8
  ret ptr %20

unreachable:                                      ; preds = %cleanup
  unreachable
}