; Function Attrs: nounwind sspstrong uwtable
define internal fastcc noundef ptr @qemu_log_trylock_with_err(ptr noundef %errp) unnamed_addr #2 {
entry:
  %0 = tail call align 8 ptr @llvm.threadlocal.address.p0(ptr align 8 @thread_file)
  %1 = load ptr, ptr %0, align 8
  %tobool.not = icmp eq ptr %1, null
  br i1 %tobool.not, label %if.then, label %if.end13

if.then:                                          ; preds = %entry
  %.b7 = load i1, ptr @log_per_thread, align 1
  br i1 %.b7, label %if.then2, label %if.else

if.then2:                                         ; preds = %if.then
  %2 = load ptr, ptr @global_filename, align 8
  %call.i = tail call i32 @gettid() #15
  %call3 = tail call noalias ptr (ptr, ...) @g_strdup_printf(ptr noundef %2, i32 noundef %call.i) #15
  %call4 = tail call noalias ptr @fopen64(ptr noundef %call3, ptr noundef nonnull @.str.55)
  %tobool5.not = icmp eq ptr %call4, null
  br i1 %tobool5.not, label %cleanup, label %cleanup.thread

cleanup.thread:                                   ; preds = %if.then2
  store ptr %call4, ptr %0, align 8
  %3 = tail call align 8 ptr @llvm.threadlocal.address.p0(ptr align 8 @qemu_log_thread_cleanup_notifier)
  store ptr @qemu_log_thread_cleanup, ptr %3, align 8
  tail call void @qemu_thread_atexit_add(ptr noundef nonnull %3) #15
  tail call void @g_free(ptr noundef %call3) #15
  br label %if.end13

cleanup:                                          ; preds = %if.then2
  %call7 = tail call ptr @__errno_location() #16
  %4 = load i32, ptr %call7, align 4
  %call.i8 = tail call i32 @gettid() #15
  tail call void (ptr, ptr, i32, ptr, i32, ptr, ...) @error_setg_errno_internal(ptr noundef %errp, ptr noundef nonnull @.str, i32 noundef 103, ptr noundef nonnull @__func__.qemu_log_trylock_with_err, i32 noundef %4, ptr noundef nonnull @.str.56, ptr noundef %call3, i32 noundef %call.i8) #15
  tail call void @g_free(ptr noundef %call3) #15
  br label %return

if.else:                                          ; preds = %if.then
  %call.i9 = tail call ptr @get_ptr_rcu_reader() #15
  %depth.i = getelementptr inbounds nuw i8, ptr %call.i9, i64 12
  %5 = load i32, ptr %depth.i, align 4
  %inc.i = add i32 %5, 1
  store i32 %inc.i, ptr %depth.i, align 4
  %cmp.not.i = icmp eq i32 %5, 0
  br i1 %cmp.not.i, label %while.end.i, label %rcu_read_lock.exit

while.end.i:                                      ; preds = %if.else
  %6 = load atomic i64, ptr @rcu_gp_ctr monotonic, align 8
  %conv8.i = and i64 %6, 4294967295
  store atomic i64 %conv8.i, ptr %call.i9 monotonic, align 8
  tail call void asm sideeffect "", "~{memory},~{dirflag},~{fpsr},~{flags}"() #15, !srcloc !5
  fence seq_cst
  br label %rcu_read_lock.exit

rcu_read_lock.exit:                               ; preds = %if.else, %while.end.i
  %7 = load atomic i64, ptr @global_file monotonic, align 8
  %8 = inttoptr i64 %7 to ptr
  tail call void asm sideeffect "", "~{memory},~{dirflag},~{fpsr},~{flags}"() #15, !srcloc !6
  %tobool9.not = icmp eq i64 %7, 0
  br i1 %tobool9.not, label %if.then10, label %if.end13

if.then10:                                        ; preds = %rcu_read_lock.exit
  %call.i10 = tail call ptr @get_ptr_rcu_reader() #15
  %depth.i11 = getelementptr inbounds nuw i8, ptr %call.i10, i64 12
  %9 = load i32, ptr %depth.i11, align 4
  %cmp.not.i12 = icmp eq i32 %9, 0
  br i1 %cmp.not.i12, label %if.else.i, label %if.end.i

if.else.i:                                        ; preds = %if.then10
  tail call void @__assert_fail(ptr noundef nonnull @.str.58, ptr noundef nonnull @.str.57, i32 noundef 101, ptr noundef nonnull @__PRETTY_FUNCTION__.rcu_read_unlock) #17
  unreachable

if.end.i:                                         ; preds = %if.then10
  %dec.i = add i32 %9, -1
  store i32 %dec.i, ptr %depth.i11, align 4
  %cmp2.not.i = icmp eq i32 %dec.i, 0
  br i1 %cmp2.not.i, label %while.end.i13, label %return

while.end.i13:                                    ; preds = %if.end.i
  store atomic i64 0, ptr %call.i10 release, align 8
  tail call void asm sideeffect "", "~{memory},~{dirflag},~{fpsr},~{flags}"() #15, !srcloc !7
  fence seq_cst
  %waiting.i = getelementptr inbounds nuw i8, ptr %call.i10, i64 8
  %10 = load atomic i8, ptr %waiting.i monotonic, align 8
  %tobool.i = trunc i8 %10 to i1
  br i1 %tobool.i, label %while.end21.i, label %return

while.end21.i:                                    ; preds = %while.end.i13
  store atomic i8 0, ptr %waiting.i monotonic, align 8
  tail call void @qemu_event_set(ptr noundef nonnull @rcu_gp_event) #15
  br label %return

if.end13:                                         ; preds = %cleanup.thread, %rcu_read_lock.exit, %entry
  %logfile.0 = phi ptr [ %1, %entry ], [ %8, %rcu_read_lock.exit ], [ %call4, %cleanup.thread ]
  tail call void @flockfile(ptr noundef %logfile.0) #15
  br label %return

return:                                           ; preds = %while.end21.i, %while.end.i13, %if.end.i, %cleanup, %if.end13
  %retval.1 = phi ptr [ %logfile.0, %if.end13 ], [ null, %cleanup ], [ null, %if.end.i ], [ null, %while.end.i13 ], [ null, %while.end21.i ]
  ret ptr %retval.1
}